target datalayout = "e-m:e-p270:32:32-p271:32:32-p272:64:64-i64:64-i128:128-f80:128-n8:16:32:64-S128"
target triple = "x86_64-pc-linux-gnu"

; Function Attrs: nounwind uwtable
define dso_local i32 @php_stream_parse_fopen_modes(ptr noundef %0, ptr noundef %1) #0 {
  %3 = alloca i32, align 4
  %4 = alloca ptr, align 8
  %5 = alloca ptr, align 8
  %6 = alloca i32, align 4
  %7 = alloca i32, align 4
  store ptr %0, ptr %4, align 8, !tbaa !4
  store ptr %1, ptr %5, align 8, !tbaa !9
  call void @llvm.lifetime.start.p0(i64 4, ptr %6) #13
  %8 = load ptr, ptr %4, align 8, !tbaa !4
  %9 = getelementptr inbounds i8, ptr %8, i64 0
  %10 = load i8, ptr %9, align 1, !tbaa !11
  %11 = sext i8 %10 to i32
  switch i32 %11, label %17 [
    i32 114, label %12
    i32 119, label %13
    i32 97, label %14
    i32 120, label %15
    i32 99, label %16
  ]

12:                                               ; preds = %2
  store i32 0, ptr %6, align 4, !tbaa !12
  br label %18

13:                                               ; preds = %2
  store i32 576, ptr %6, align 4, !tbaa !12
  br label %18

14:                                               ; preds = %2
  store i32 1088, ptr %6, align 4, !tbaa !12
  br label %18

15:                                               ; preds = %2
  store i32 192, ptr %6, align 4, !tbaa !12
  br label %18

16:                                               ; preds = %2
  store i32 64, ptr %6, align 4, !tbaa !12
  br label %18

17:                                               ; preds = %2
  store i32 -1, ptr %3, align 4
  store i32 1, ptr %7, align 4
  br label %52

18:                                               ; preds = %16, %15, %14, %13, %12
  %19 = load ptr, ptr %4, align 8, !tbaa !4
  %20 = call ptr @strchr(ptr noundef %19, i32 noundef 43) #14
  %21 = icmp ne ptr %20, null
  br i1 %21, label %22, label %25

22:                                               ; preds = %18
  %23 = load i32, ptr %6, align 4, !tbaa !12
  %24 = or i32 %23, 2
  store i32 %24, ptr %6, align 4, !tbaa !12
  br label %35

25:                                               ; preds = %18
  %26 = load i32, ptr %6, align 4, !tbaa !12
  %27 = icmp ne i32 %26, 0
  br i1 %27, label %28, label %31

28:                                               ; preds = %25
  %29 = load i32, ptr %6, align 4, !tbaa !12
  %30 = or i32 %29, 1
  store i32 %30, ptr %6, align 4, !tbaa !12
  br label %34

31:                                               ; preds = %25
  %32 = load i32, ptr %6, align 4, !tbaa !12
  %33 = or i32 %32, 0
  store i32 %33, ptr %6, align 4, !tbaa !12
  br label %34

34:                                               ; preds = %31, %28
  br label %35

35:                                               ; preds = %34, %22
  %36 = load ptr, ptr %4, align 8, !tbaa !4
  %37 = call ptr @strchr(ptr noundef %36, i32 noundef 101) #14
  %38 = icmp ne ptr %37, null
  br i1 %38, label %39, label %42

39:                                               ; preds = %35
  %40 = load i32, ptr %6, align 4, !tbaa !12
  %41 = or i32 %40, 524288
  store i32 %41, ptr %6, align 4, !tbaa !12
  br label %42

42:                                               ; preds = %39, %35
  %43 = load ptr, ptr %4, align 8, !tbaa !4
  %44 = call ptr @strchr(ptr noundef %43, i32 noundef 110) #14
  %45 = icmp ne ptr %44, null
  br i1 %45, label %46, label %49

46:                                               ; preds = %42
  %47 = load i32, ptr %6, align 4, !tbaa !12
  %48 = or i32 %47, 2048
  store i32 %48, ptr %6, align 4, !tbaa !12
  br label %49

49:                                               ; preds = %46, %42
  %50 = load i32, ptr %6, align 4, !tbaa !12
  %51 = load ptr, ptr %5, align 8, !tbaa !9
  store i32 %50, ptr %51, align 4, !tbaa !12
  store i32 0, ptr %3, align 4
  store i32 1, ptr %7, align 4
  br label %52

52:                                               ; preds = %49, %17
  call void @llvm.lifetime.end.p0(i64 4, ptr %6) #13
  %53 = load i32, ptr %3, align 4
  ret i32 %53
}