; Function Attrs: mustprogress nofree nounwind willreturn memory(argmem: readwrite) uwtable
define dso_local range(i32 -1, 1) i32 @php_stream_parse_fopen_modes(ptr noundef readonly %0, ptr noundef writeonly captures(none) %1) local_unnamed_addr #0 {
  %3 = load i8, ptr %0, align 1, !tbaa !4
  switch i8 %3, label %16 [
    i8 114, label %8
    i8 119, label %4
    i8 97, label %5
    i8 120, label %6
    i8 99, label %7
  ]

4:                                                ; preds = %2
  br label %8

5:                                                ; preds = %2
  br label %8

6:                                                ; preds = %2
  br label %8

7:                                                ; preds = %2
  br label %8

8:                                                ; preds = %2, %7, %6, %5, %4
  %.not13 = phi i1 [ false, %7 ], [ false, %6 ], [ false, %5 ], [ false, %4 ], [ true, %2 ]
  %.0 = phi i32 [ 64, %7 ], [ 192, %6 ], [ 1088, %5 ], [ 576, %4 ], [ 0, %2 ]
  %9 = tail call ptr @strchr(ptr noundef nonnull dereferenceable(1) %0, i32 noundef 43) #16
  %.not = icmp eq ptr %9, null
  %10 = or disjoint i32 %.0, 2
  %11 = or disjoint i32 %.0, 1
  %spec.select18 = select i1 %.not13, i32 0, i32 %11
  %.1 = select i1 %.not, i32 %spec.select18, i32 %10
  %12 = tail call ptr @strchr(ptr noundef nonnull dereferenceable(1) %0, i32 noundef 101) #16
  %.not14 = icmp eq ptr %12, null
  %13 = or disjoint i32 %.1, 524288
  %spec.select = select i1 %.not14, i32 %.1, i32 %13
  %14 = tail call ptr @strchr(ptr noundef nonnull dereferenceable(1) %0, i32 noundef 110) #16
  %.not15 = icmp eq ptr %14, null
  %15 = or i32 %spec.select, 2048
  %.3 = select i1 %.not15, i32 %spec.select, i32 %15
  store i32 %.3, ptr %1, align 4, !tbaa !7
  br label %16

16:                                               ; preds = %2, %8
  %.012 = phi i32 [ 0, %8 ], [ -1, %2 ]
  ret i32 %.012
}